target datalayout = "e-m:e-p270:32:32-p271:32:32-p272:64:64-i64:64-i128:128-f80:128-n8:16:32:64-S128"
target triple = "x86_64-pc-linux-gnu"

%"struct.Luau::Compile::Constant" = type { i32, i32, %union.anon }
%union.anon = type { double, [8 x i8] }

; Function Attrs: mustprogress nounwind uwtable
define linkonce_odr dso_local noundef zeroext i1 @_ZNK4Luau7Compile8Constant10isTruthfulEv(ptr noundef nonnull align 8 dereferenceable(24) %0) #4 comdat align 2 {
  %2 = alloca ptr, align 8
  store ptr %0, ptr %2, align 8, !tbaa !218
  %3 = load ptr, ptr %2, align 8
  %4 = getelementptr inbounds nuw %"struct.Luau::Compile::Constant", ptr %3, i32 0, i32 0
  %5 = load i32, ptr %4, align 8, !tbaa !135
  %6 = icmp ne i32 %5, 1
  br i1 %6, label %7, label %20

7:                                                ; preds = %1
  %8 = getelementptr inbounds nuw %"struct.Luau::Compile::Constant", ptr %3, i32 0, i32 0
  %9 = load i32, ptr %8, align 8, !tbaa !135
  %10 = icmp eq i32 %9, 2
  br i1 %10, label %11, label %17

11:                                               ; preds = %7
  %12 = getelementptr inbounds nuw %"struct.Luau::Compile::Constant", ptr %3, i32 0, i32 2
  %13 = load i8, ptr %12, align 8, !tbaa !139, !range !22, !noundef !23
  %14 = trunc i8 %13 to i1
  %15 = zext i1 %14 to i32
  %16 = icmp eq i32 %15, 0
  br label %17

17:                                               ; preds = %11, %7
  %18 = phi i1 [ false, %7 ], [ %16, %11 ]
  %19 = xor i1 %18, true
  br label %20

20:                                               ; preds = %17, %1
  %21 = phi i1 [ false, %1 ], [ %19, %17 ]
  ret i1 %21
}

; Function Attrs: mustprogress uwtable
define internal void @_ZN4Luau7CompileL9foldUnaryERNS0_8ConstantENS_12AstExprUnary2OpERKS1_(ptr noundef nonnull align 8 dereferenceable(24) %0, i32 noundef %1, ptr noundef nonnull align 8 dereferenceable(24) %2) #2 {
  %4 = alloca ptr, align 8
  %5 = alloca i32, align 4
  %6 = alloca ptr, align 8
  store ptr %0, ptr %4, align 8, !tbaa !218
  store i32 %1, ptr %5, align 4, !tbaa !308
  store ptr %2, ptr %6, align 8, !tbaa !218
  %7 = load i32, ptr %5, align 4, !tbaa !308
  switch i32 %7, label %94 [
    i32 0, label %8
    i32 1, label %23
    i32 2, label %79
  ]

8:                                                ; preds = %3
  %9 = load ptr, ptr %6, align 8, !tbaa !218
  %10 = getelementptr inbounds nuw %"struct.Luau::Compile::Constant", ptr %9, i32 0, i32 0
  %11 = load i32, ptr %10, align 8, !tbaa !135
  %12 = icmp ne i32 %11, 0
  br i1 %12, label %13, label %22

13:                                               ; preds = %8
  %14 = load ptr, ptr %4, align 8, !tbaa !218
  %15 = getelementptr inbounds nuw %"struct.Luau::Compile::Constant", ptr %14, i32 0, i32 0
  store i32 2, ptr %15, align 8, !tbaa !135
  %16 = load ptr, ptr %6, align 8, !tbaa !218
  %17 = call noundef zeroext i1 @_ZNK4Luau7Compile8Constant10isTruthfulEv(ptr noundef nonnull align 8 dereferenceable(24) %16)
  %18 = xor i1 %17, true
  %19 = load ptr, ptr %4, align 8, !tbaa !218
  %20 = getelementptr inbounds nuw %"struct.Luau::Compile::Constant", ptr %19, i32 0, i32 2
  %21 = zext i1 %18 to i8
  store i8 %21, ptr %20, align 8, !tbaa !139
  br label %22

22:                                               ; preds = %13, %8
  br label %95

23:                                               ; preds = %3
  %24 = load ptr, ptr %6, align 8, !tbaa !218
  %25 = getelementptr inbounds nuw %"struct.Luau::Compile::Constant", ptr %24, i32 0, i32 0
  %26 = load i32, ptr %25, align 8, !tbaa !135
  %27 = icmp eq i32 %26, 3
  br i1 %27, label %28, label %37

28:                                               ; preds = %23
  %29 = load ptr, ptr %4, align 8, !tbaa !218
  %30 = getelementptr inbounds nuw %"struct.Luau::Compile::Constant", ptr %29, i32 0, i32 0
  store i32 3, ptr %30, align 8, !tbaa !135
  %31 = load ptr, ptr %6, align 8, !tbaa !218
  %32 = getelementptr inbounds nuw %"struct.Luau::Compile::Constant", ptr %31, i32 0, i32 2
  %33 = load double, ptr %32, align 8, !tbaa !139
  %34 = fneg double %33
  %35 = load ptr, ptr %4, align 8, !tbaa !218
  %36 = getelementptr inbounds nuw %"struct.Luau::Compile::Constant", ptr %35, i32 0, i32 2
  store double %34, ptr %36, align 8, !tbaa !139
  br label %78

37:                                               ; preds = %23
  %38 = load ptr, ptr %6, align 8, !tbaa !218
  %39 = getelementptr inbounds nuw %"struct.Luau::Compile::Constant", ptr %38, i32 0, i32 0
  %40 = load i32, ptr %39, align 8, !tbaa !135
  %41 = icmp eq i32 %40, 4
  br i1 %41, label %42, label %77

42:                                               ; preds = %37
  %43 = load ptr, ptr %4, align 8, !tbaa !218
  %44 = getelementptr inbounds nuw %"struct.Luau::Compile::Constant", ptr %43, i32 0, i32 0
  store i32 4, ptr %44, align 8, !tbaa !135
  %45 = load ptr, ptr %6, align 8, !tbaa !218
  %46 = getelementptr inbounds nuw %"struct.Luau::Compile::Constant", ptr %45, i32 0, i32 2
  %47 = getelementptr inbounds [4 x float], ptr %46, i64 0, i64 0
  %48 = load float, ptr %47, align 8, !tbaa !139
  %49 = fneg float %48
  %50 = load ptr, ptr %4, align 8, !tbaa !218
  %51 = getelementptr inbounds nuw %"struct.Luau::Compile::Constant", ptr %50, i32 0, i32 2
  %52 = getelementptr inbounds [4 x float], ptr %51, i64 0, i64 0
  store float %49, ptr %52, align 8, !tbaa !139
  %53 = load ptr, ptr %6, align 8, !tbaa !218
  %54 = getelementptr inbounds nuw %"struct.Luau::Compile::Constant", ptr %53, i32 0, i32 2
  %55 = getelementptr inbounds [4 x float], ptr %54, i64 0, i64 1
  %56 = load float, ptr %55, align 4, !tbaa !139
  %57 = fneg float %56
  %58 = load ptr, ptr %4, align 8, !tbaa !218
  %59 = getelementptr inbounds nuw %"struct.Luau::Compile::Constant", ptr %58, i32 0, i32 2
  %60 = getelementptr inbounds [4 x float], ptr %59, i64 0, i64 1
  store float %57, ptr %60, align 4, !tbaa !139
  %61 = load ptr, ptr %6, align 8, !tbaa !218
  %62 = getelementptr inbounds nuw %"struct.Luau::Compile::Constant", ptr %61, i32 0, i32 2
  %63 = getelementptr inbounds [4 x float], ptr %62, i64 0, i64 2
  %64 = load float, ptr %63, align 8, !tbaa !139
  %65 = fneg float %64
  %66 = load ptr, ptr %4, align 8, !tbaa !218
  %67 = getelementptr inbounds nuw %"struct.Luau::Compile::Constant", ptr %66, i32 0, i32 2
  %68 = getelementptr inbounds [4 x float], ptr %67, i64 0, i64 2
  store float %65, ptr %68, align 8, !tbaa !139
  %69 = load ptr, ptr %6, align 8, !tbaa !218
  %70 = getelementptr inbounds nuw %"struct.Luau::Compile::Constant", ptr %69, i32 0, i32 2
  %71 = getelementptr inbounds [4 x float], ptr %70, i64 0, i64 3
  %72 = load float, ptr %71, align 4, !tbaa !139
  %73 = fneg float %72
  %74 = load ptr, ptr %4, align 8, !tbaa !218
  %75 = getelementptr inbounds nuw %"struct.Luau::Compile::Constant", ptr %74, i32 0, i32 2
  %76 = getelementptr inbounds [4 x float], ptr %75, i64 0, i64 3
  store float %73, ptr %76, align 4, !tbaa !139
  br label %77

77:                                               ; preds = %42, %37
  br label %78

78:                                               ; preds = %77, %28
  br label %95

79:                                               ; preds = %3
  %80 = load ptr, ptr %6, align 8, !tbaa !218
  %81 = getelementptr inbounds nuw %"struct.Luau::Compile::Constant", ptr %80, i32 0, i32 0
  %82 = load i32, ptr %81, align 8, !tbaa !135
  %83 = icmp eq i32 %82, 5
  br i1 %83, label %84, label %93

84:                                               ; preds = %79
  %85 = load ptr, ptr %4, align 8, !tbaa !218
  %86 = getelementptr inbounds nuw %"struct.Luau::Compile::Constant", ptr %85, i32 0, i32 0
  store i32 3, ptr %86, align 8, !tbaa !135
  %87 = load ptr, ptr %6, align 8, !tbaa !218
  %88 = getelementptr inbounds nuw %"struct.Luau::Compile::Constant", ptr %87, i32 0, i32 1
  %89 = load i32, ptr %88, align 4, !tbaa !138
  %90 = uitofp i32 %89 to double
  %91 = load ptr, ptr %4, align 8, !tbaa !218
  %92 = getelementptr inbounds nuw %"struct.Luau::Compile::Constant", ptr %91, i32 0, i32 2
  store double %90, ptr %92, align 8, !tbaa !139
  br label %93

93:                                               ; preds = %84, %79
  br label %95

94:                                               ; preds = %3
  br label %95

95:                                               ; preds = %94, %93, %78, %22
  ret void
}