; Function Attrs: mustprogress nofree norecurse nosync nounwind willreturn memory(argmem: readwrite) uwtable
define internal fastcc void @_ZN4Luau7CompileL9foldUnaryERNS0_8ConstantENS_12AstExprUnary2OpERKS1_(ptr noundef nonnull writeonly align 8 captures(none) dereferenceable(24) %0, i32 noundef %1, ptr noundef nonnull readonly align 8 captures(none) dereferenceable(24) %2) unnamed_addr #8 {
  switch i32 %1, label %47 [
    i32 0, label %4
    i32 1, label %15
    i32 2, label %39
  ]

4:                                                ; preds = %3
  %5 = load i32, ptr %2, align 8, !tbaa !63
  %.not = icmp eq i32 %5, 0
  br i1 %.not, label %47, label %6

6:                                                ; preds = %4
  store i32 2, ptr %0, align 8, !tbaa !63
  %7 = load i32, ptr %2, align 8, !tbaa !63
  switch i32 %7, label %12 [
    i32 1, label %_ZNK4Luau7Compile8Constant10isTruthfulEv.exit
    i32 2, label %8
  ]

8:                                                ; preds = %6
  %9 = getelementptr inbounds nuw i8, ptr %2, i64 8
  %10 = load i8, ptr %9, align 8, !tbaa !67, !range !75, !noundef !76
  %11 = xor i8 %10, 1
  br label %_ZNK4Luau7Compile8Constant10isTruthfulEv.exit

12:                                               ; preds = %6
  br label %_ZNK4Luau7Compile8Constant10isTruthfulEv.exit

_ZNK4Luau7Compile8Constant10isTruthfulEv.exit:    ; preds = %6, %8, %12
  %13 = phi i8 [ 1, %6 ], [ %11, %8 ], [ 0, %12 ]
  %14 = getelementptr inbounds nuw i8, ptr %0, i64 8
  store i8 %13, ptr %14, align 8, !tbaa !67
  br label %47

15:                                               ; preds = %3
  %16 = load i32, ptr %2, align 8, !tbaa !63
  switch i32 %16, label %47 [
    i32 3, label %17
    i32 4, label %22
  ]

17:                                               ; preds = %15
  store i32 3, ptr %0, align 8, !tbaa !63
  %18 = getelementptr inbounds nuw i8, ptr %2, i64 8
  %19 = load double, ptr %18, align 8, !tbaa !67
  %20 = fneg double %19
  %21 = getelementptr inbounds nuw i8, ptr %0, i64 8
  store double %20, ptr %21, align 8, !tbaa !67
  br label %47

22:                                               ; preds = %15
  store i32 4, ptr %0, align 8, !tbaa !63
  %23 = getelementptr inbounds nuw i8, ptr %2, i64 8
  %24 = load float, ptr %23, align 8, !tbaa !67
  %25 = fneg float %24
  %26 = getelementptr inbounds nuw i8, ptr %0, i64 8
  store float %25, ptr %26, align 8, !tbaa !67
  %27 = getelementptr inbounds nuw i8, ptr %2, i64 12
  %28 = load float, ptr %27, align 4, !tbaa !67
  %29 = fneg float %28
  %30 = getelementptr inbounds nuw i8, ptr %0, i64 12
  store float %29, ptr %30, align 4, !tbaa !67
  %31 = getelementptr inbounds nuw i8, ptr %2, i64 16
  %32 = load float, ptr %31, align 8, !tbaa !67
  %33 = fneg float %32
  %34 = getelementptr inbounds nuw i8, ptr %0, i64 16
  store float %33, ptr %34, align 8, !tbaa !67
  %35 = getelementptr inbounds nuw i8, ptr %2, i64 20
  %36 = load float, ptr %35, align 4, !tbaa !67
  %37 = fneg float %36
  %38 = getelementptr inbounds nuw i8, ptr %0, i64 20
  store float %37, ptr %38, align 4, !tbaa !67
  br label %47

39:                                               ; preds = %3
  %40 = load i32, ptr %2, align 8, !tbaa !63
  %41 = icmp eq i32 %40, 5
  br i1 %41, label %42, label %47

42:                                               ; preds = %39
  store i32 3, ptr %0, align 8, !tbaa !63
  %43 = getelementptr inbounds nuw i8, ptr %2, i64 4
  %44 = load i32, ptr %43, align 4, !tbaa !66
  %45 = uitofp i32 %44 to double
  %46 = getelementptr inbounds nuw i8, ptr %0, i64 8
  store double %45, ptr %46, align 8, !tbaa !67
  br label %47

47:                                               ; preds = %15, %3, %39, %42, %17, %22, %4, %_ZNK4Luau7Compile8Constant10isTruthfulEv.exit
  ret void
}